; Function Attrs: nounwind uwtable
define i64 @bufferevent_get_write_limit(ptr noundef readonly captures(none) %0) local_unnamed_addr #3 {
  %2 = alloca %struct.timeval, align 8
  %3 = getelementptr inbounds nuw i8, ptr %0, i64 448
  %4 = load ptr, ptr %3, align 8
  %.not = icmp eq ptr %4, null
  br i1 %.not, label %8, label %5

5:                                                ; preds = %1
  %6 = load ptr, ptr getelementptr inbounds nuw (i8, ptr @evthread_lock_fns_, i64 24), align 8
  %7 = tail call i32 %6(i32 noundef 0, ptr noundef nonnull %4) #10
  br label %8

8:                                                ; preds = %5, %1
  %9 = getelementptr inbounds nuw i8, ptr %0, i64 472
  %10 = load ptr, ptr %9, align 8
  %.not14 = icmp eq ptr %10, null
  br i1 %.not14, label %62, label %11

11:                                               ; preds = %8
  %12 = getelementptr inbounds nuw i8, ptr %10, i64 48
  %13 = load ptr, ptr %12, align 8
  %.not15 = icmp eq ptr %13, null
  br i1 %.not15, label %62, label %14

14:                                               ; preds = %11
  call void @llvm.lifetime.start.p0(i64 16, ptr nonnull %2) #10
  %15 = load ptr, ptr %0, align 8
  %16 = call i32 @event_base_gettimeofday_cached(ptr noundef %15, ptr noundef nonnull %2) #10
  %17 = load ptr, ptr %9, align 8
  %18 = getelementptr inbounds nuw i8, ptr %17, i64 48
  %19 = load ptr, ptr %18, align 8
  %20 = load i64, ptr %2, align 8
  %21 = mul i64 %20, 1000
  %22 = getelementptr inbounds nuw i8, ptr %2, i64 8
  %23 = load i64, ptr %22, align 8
  %24 = sdiv i64 %23, 1000
  %25 = add i64 %24, %21
  %26 = getelementptr inbounds nuw i8, ptr %19, i64 48
  %27 = load i32, ptr %26, align 8
  %28 = zext i32 %27 to i64
  %29 = udiv i64 %25, %28
  %30 = trunc i64 %29 to i32
  %31 = getelementptr inbounds nuw i8, ptr %17, i64 40
  %32 = load i32, ptr %31, align 8
  %.not.i = icmp eq i32 %32, %30
  br i1 %.not.i, label %bufferevent_update_buckets.exit, label %33

33:                                               ; preds = %14
  %34 = sub i32 %30, %32
  %35 = icmp slt i32 %34, 0
  br i1 %35, label %bufferevent_update_buckets.exit, label %36

36:                                               ; preds = %33
  %37 = getelementptr inbounds nuw i8, ptr %17, i64 24
  %38 = getelementptr inbounds nuw i8, ptr %19, i64 8
  %39 = load i64, ptr %38, align 8
  %40 = load i64, ptr %37, align 8
  %41 = sub i64 %39, %40
  %42 = zext nneg i32 %34 to i64
  %43 = udiv i64 %41, %42
  %44 = load i64, ptr %19, align 8
  %45 = icmp ult i64 %43, %44
  %46 = mul i64 %44, %42
  %47 = add i64 %46, %40
  %storemerge.i.i = select i1 %45, i64 %39, i64 %47
  store i64 %storemerge.i.i, ptr %37, align 8
  %48 = getelementptr inbounds nuw i8, ptr %19, i64 24
  %49 = load i64, ptr %48, align 8
  %50 = getelementptr inbounds nuw i8, ptr %17, i64 32
  %51 = load i64, ptr %50, align 8
  %52 = sub i64 %49, %51
  %53 = udiv i64 %52, %42
  %54 = getelementptr inbounds nuw i8, ptr %19, i64 16
  %55 = load i64, ptr %54, align 8
  %56 = icmp ult i64 %53, %55
  %57 = mul i64 %55, %42
  %58 = add i64 %57, %51
  %storemerge28.i.i = select i1 %56, i64 %49, i64 %58
  store i64 %storemerge28.i.i, ptr %50, align 8
  store i32 %30, ptr %31, align 8
  %.pre = load ptr, ptr %9, align 8
  br label %bufferevent_update_buckets.exit

bufferevent_update_buckets.exit:                  ; preds = %14, %33, %36
  %59 = phi ptr [ %17, %14 ], [ %17, %33 ], [ %.pre, %36 ]
  call void @llvm.lifetime.end.p0(i64 16, ptr nonnull %2) #10
  %60 = getelementptr inbounds nuw i8, ptr %59, i64 32
  %61 = load i64, ptr %60, align 8
  br label %62

62:                                               ; preds = %8, %11, %bufferevent_update_buckets.exit
  %.0 = phi i64 [ %61, %bufferevent_update_buckets.exit ], [ 9223372036854775807, %11 ], [ 9223372036854775807, %8 ]
  %63 = load ptr, ptr %3, align 8
  %.not16 = icmp eq ptr %63, null
  br i1 %.not16, label %67, label %64

64:                                               ; preds = %62
  %65 = load ptr, ptr getelementptr inbounds nuw (i8, ptr @evthread_lock_fns_, i64 32), align 8
  %66 = call i32 %65(i32 noundef 0, ptr noundef nonnull %63) #10
  br label %67

67:                                               ; preds = %64, %62
  ret i64 %.0
}